target datalayout = "e-m:e-p270:32:32-p271:32:32-p272:64:64-i64:64-i128:128-f80:128-n8:16:32:64-S128"
target triple = "x86_64-pc-linux-gnu"

%struct.ResourceOwnerDesc = type { ptr, i32, i32, ptr, ptr }
%struct.RelationData = type { %struct.RelFileLocator, ptr, i32, i32, i8, i8, i8, i8, i8, i32, i32, i32, i32, ptr, ptr, i32, %struct.LockInfoData, ptr, ptr, ptr, ptr, ptr, i8, ptr, ptr, ptr, ptr, ptr, ptr, i32, ptr, i8, ptr, ptr, i32, i8, i32, ptr, i8, ptr, ptr, ptr, ptr, ptr, ptr, ptr, i32, ptr, ptr, ptr, ptr, ptr, ptr, ptr, ptr, ptr, ptr, ptr, ptr, ptr, ptr, ptr, ptr, ptr, ptr, ptr, i32, i8, ptr }
%struct.RelFileLocator = type { i32, i32, i32 }
%struct.LockInfoData = type { %struct.LockRelId }
%struct.LockRelId = type { i32, i32 }
%struct.relidcacheent = type { i32, ptr }
%struct.inprogressent = type { i32, i8 }

@RelationIdCache = internal global ptr null, align 8
@CurrentResourceOwner = external global ptr, align 8
@Mode = external global i32, align 4
@relcacheInvalsReceived = internal global i64 0, align 8
@in_progress_list_len = internal global i32 0, align 4
@in_progress_list = internal global ptr null, align 8
@relref_resowner_desc = internal constant %struct.ResourceOwnerDesc { ptr @.str.57, i32 1, i32 300, ptr @ResOwnerReleaseRelation, ptr @ResOwnerPrintRelCache }, align 8

; Function Attrs: inlinehint nounwind uwtable
define internal i64 @PointerGetDatum(ptr noundef %0) #3 {
  %2 = alloca ptr, align 8
  store ptr %0, ptr %2, align 8
  %3 = load ptr, ptr %2, align 8
  %4 = ptrtoint ptr %3 to i64
  ret i64 %4
}

; Function Attrs: inlinehint nounwind uwtable
define internal void @ResourceOwnerForgetRelationRef(ptr noundef %0, ptr noundef %1) #3 {
  %3 = alloca ptr, align 8
  %4 = alloca ptr, align 8
  store ptr %0, ptr %3, align 8
  store ptr %1, ptr %4, align 8
  %5 = load ptr, ptr %3, align 8
  %6 = load ptr, ptr %4, align 8
  %7 = call i64 @PointerGetDatum(ptr noundef %6)
  call void @ResourceOwnerForget(ptr noundef %5, i64 noundef %7, ptr noundef @relref_resowner_desc)
  ret void
}

; Function Attrs: inlinehint nounwind uwtable
define internal void @ResourceOwnerRememberRelationRef(ptr noundef %0, ptr noundef %1) #3 {
  %3 = alloca ptr, align 8
  %4 = alloca ptr, align 8
  store ptr %0, ptr %3, align 8
  store ptr %1, ptr %4, align 8
  %5 = load ptr, ptr %3, align 8
  %6 = load ptr, ptr %4, align 8
  %7 = call i64 @PointerGetDatum(ptr noundef %6)
  call void @ResourceOwnerRemember(ptr noundef %5, i64 noundef %7, ptr noundef @relref_resowner_desc)
  ret void
}

; Function Attrs: nounwind uwtable
define dso_local void @RelationDecrementReferenceCount(ptr noundef %0) #0 {
  %2 = alloca ptr, align 8
  store ptr %0, ptr %2, align 8
  %3 = load ptr, ptr %2, align 8
  %4 = getelementptr inbounds nuw %struct.RelationData, ptr %3, i32 0, i32 2
  %5 = load i32, ptr %4, align 8
  %6 = sub i32 %5, 1
  store i32 %6, ptr %4, align 8
  %7 = load i32, ptr @Mode, align 4
  %8 = icmp eq i32 %7, 0
  br i1 %8, label %12, label %9

9:                                                ; preds = %1
  %10 = load ptr, ptr @CurrentResourceOwner, align 8
  %11 = load ptr, ptr %2, align 8
  call void @ResourceOwnerForgetRelationRef(ptr noundef %10, ptr noundef %11)
  br label %12

12:                                               ; preds = %9, %1
  ret void
}

; Function Attrs: nounwind uwtable
define dso_local void @RelationIncrementReferenceCount(ptr noundef %0) #0 {
  %2 = alloca ptr, align 8
  store ptr %0, ptr %2, align 8
  %3 = load ptr, ptr @CurrentResourceOwner, align 8
  call void @ResourceOwnerEnlarge(ptr noundef %3)
  %4 = load ptr, ptr %2, align 8
  %5 = getelementptr inbounds nuw %struct.RelationData, ptr %4, i32 0, i32 2
  %6 = load i32, ptr %5, align 8
  %7 = add i32 %6, 1
  store i32 %7, ptr %5, align 8
  %8 = load i32, ptr @Mode, align 4
  %9 = icmp eq i32 %8, 0
  br i1 %9, label %13, label %10

10:                                               ; preds = %1
  %11 = load ptr, ptr @CurrentResourceOwner, align 8
  %12 = load ptr, ptr %2, align 8
  call void @ResourceOwnerRememberRelationRef(ptr noundef %11, ptr noundef %12)
  br label %13

13:                                               ; preds = %10, %1
  ret void
}

; Function Attrs: nounwind uwtable
define internal void @RelationFlushRelation(ptr noundef %0) #0 {
  %2 = alloca ptr, align 8
  store ptr %0, ptr %2, align 8
  %3 = load ptr, ptr %2, align 8
  %4 = getelementptr inbounds nuw %struct.RelationData, ptr %3, i32 0, i32 9
  %5 = load i32, ptr %4, align 8
  %6 = icmp ne i32 %5, 0
  br i1 %6, label %12, label %7

7:                                                ; preds = %1
  %8 = load ptr, ptr %2, align 8
  %9 = getelementptr inbounds nuw %struct.RelationData, ptr %8, i32 0, i32 11
  %10 = load i32, ptr %9, align 8
  %11 = icmp ne i32 %10, 0
  br i1 %11, label %12, label %26

12:                                               ; preds = %7, %1
  %13 = call zeroext i1 @IsTransactionState()
  br i1 %13, label %14, label %23

14:                                               ; preds = %12
  %15 = load ptr, ptr %2, align 8
  %16 = getelementptr inbounds nuw %struct.RelationData, ptr %15, i32 0, i32 12
  %17 = load i32, ptr %16, align 4
  %18 = icmp eq i32 %17, 0
  br i1 %18, label %19, label %23

19:                                               ; preds = %14
  %20 = load ptr, ptr %2, align 8
  call void @RelationIncrementReferenceCount(ptr noundef %20)
  %21 = load ptr, ptr %2, align 8
  call void @RelationRebuildRelation(ptr noundef %21)
  %22 = load ptr, ptr %2, align 8
  call void @RelationDecrementReferenceCount(ptr noundef %22)
  br label %25

23:                                               ; preds = %14, %12
  %24 = load ptr, ptr %2, align 8
  call void @RelationInvalidateRelation(ptr noundef %24)
  br label %25

25:                                               ; preds = %23, %19
  br label %54

26:                                               ; preds = %7
  %27 = load ptr, ptr %2, align 8
  %28 = getelementptr inbounds nuw %struct.RelationData, ptr %27, i32 0, i32 2
  %29 = load i32, ptr %28, align 8
  %30 = icmp eq i32 %29, 0
  br i1 %30, label %31, label %33

31:                                               ; preds = %26
  %32 = load ptr, ptr %2, align 8
  call void @RelationClearRelation(ptr noundef %32)
  br label %53

33:                                               ; preds = %26
  %34 = call zeroext i1 @IsTransactionState()
  br i1 %34, label %37, label %35

35:                                               ; preds = %33
  %36 = load ptr, ptr %2, align 8
  call void @RelationInvalidateRelation(ptr noundef %36)
  br label %52

37:                                               ; preds = %33
  %38 = load ptr, ptr %2, align 8
  %39 = getelementptr inbounds nuw %struct.RelationData, ptr %38, i32 0, i32 5
  %40 = load i8, ptr %39, align 1, !range !4, !noundef !5
  %41 = trunc i8 %40 to i1
  br i1 %41, label %42, label %49

42:                                               ; preds = %37
  %43 = load ptr, ptr %2, align 8
  %44 = getelementptr inbounds nuw %struct.RelationData, ptr %43, i32 0, i32 2
  %45 = load i32, ptr %44, align 8
  %46 = icmp eq i32 %45, 1
  br i1 %46, label %47, label %49

47:                                               ; preds = %42
  %48 = load ptr, ptr %2, align 8
  call void @RelationInvalidateRelation(ptr noundef %48)
  br label %51

49:                                               ; preds = %42, %37
  %50 = load ptr, ptr %2, align 8
  call void @RelationRebuildRelation(ptr noundef %50)
  br label %51

51:                                               ; preds = %49, %47
  br label %52

52:                                               ; preds = %51, %35
  br label %53

53:                                               ; preds = %52, %31
  br label %54

54:                                               ; preds = %53, %25
  ret void
}

; Function Attrs: nounwind uwtable
define dso_local void @RelationCacheInvalidateEntry(i32 noundef %0) #0 {
  %2 = alloca i32, align 4
  %3 = alloca ptr, align 8
  %4 = alloca ptr, align 8
  %5 = alloca i32, align 4
  store i32 %0, ptr %2, align 4
  call void @llvm.lifetime.start.p0(i64 8, ptr %3) #11
  br label %6

6:                                                ; preds = %1
  call void @llvm.lifetime.start.p0(i64 8, ptr %4) #11
  %7 = load ptr, ptr @RelationIdCache, align 8
  %8 = call ptr @hash_search(ptr noundef %7, ptr noundef %2, i32 noundef 0, ptr noundef null)
  store ptr %8, ptr %4, align 8
  %9 = load ptr, ptr %4, align 8
  %10 = icmp ne ptr %9, null
  br i1 %10, label %11, label %15

11:                                               ; preds = %6
  %12 = load ptr, ptr %4, align 8
  %13 = getelementptr inbounds nuw %struct.relidcacheent, ptr %12, i32 0, i32 1
  %14 = load ptr, ptr %13, align 8
  store ptr %14, ptr %3, align 8
  br label %16

15:                                               ; preds = %6
  store ptr null, ptr %3, align 8
  br label %16

16:                                               ; preds = %15, %11
  call void @llvm.lifetime.end.p0(i64 8, ptr %4) #11
  br label %17

17:                                               ; preds = %16
  br label %18

18:                                               ; preds = %17
  %19 = load ptr, ptr %3, align 8
  %20 = icmp ne ptr %19, null
  br i1 %20, label %21, label %25

21:                                               ; preds = %18
  %22 = load i64, ptr @relcacheInvalsReceived, align 8
  %23 = add i64 %22, 1
  store i64 %23, ptr @relcacheInvalsReceived, align 8
  %24 = load ptr, ptr %3, align 8
  call void @RelationFlushRelation(ptr noundef %24)
  br label %50

25:                                               ; preds = %18
  call void @llvm.lifetime.start.p0(i64 4, ptr %5) #11
  store i32 0, ptr %5, align 4
  br label %26

26:                                               ; preds = %46, %25
  %27 = load i32, ptr %5, align 4
  %28 = load i32, ptr @in_progress_list_len, align 4
  %29 = icmp slt i32 %27, %28
  br i1 %29, label %30, label %49

30:                                               ; preds = %26
  %31 = load ptr, ptr @in_progress_list, align 8
  %32 = load i32, ptr %5, align 4
  %33 = sext i32 %32 to i64
  %34 = getelementptr inbounds %struct.inprogressent, ptr %31, i64 %33
  %35 = getelementptr inbounds nuw %struct.inprogressent, ptr %34, i32 0, i32 0
  %36 = load i32, ptr %35, align 4
  %37 = load i32, ptr %2, align 4
  %38 = icmp eq i32 %36, %37
  br i1 %38, label %39, label %45

39:                                               ; preds = %30
  %40 = load ptr, ptr @in_progress_list, align 8
  %41 = load i32, ptr %5, align 4
  %42 = sext i32 %41 to i64
  %43 = getelementptr inbounds %struct.inprogressent, ptr %40, i64 %42
  %44 = getelementptr inbounds nuw %struct.inprogressent, ptr %43, i32 0, i32 1
  store i8 1, ptr %44, align 4
  br label %45

45:                                               ; preds = %39, %30
  br label %46

46:                                               ; preds = %45
  %47 = load i32, ptr %5, align 4
  %48 = add i32 %47, 1
  store i32 %48, ptr %5, align 4
  br label %26, !llvm.loop !10

49:                                               ; preds = %26
  call void @llvm.lifetime.end.p0(i64 4, ptr %5) #11
  br label %50

50:                                               ; preds = %49, %21
  call void @llvm.lifetime.end.p0(i64 8, ptr %3) #11
  ret void
}