; Function Attrs: nounwind uwtable
define dso_local void @RelationCacheInvalidateEntry(i32 noundef %0) local_unnamed_addr #0 {
  %2 = alloca i32, align 4
  store i32 %0, ptr %2, align 4
  %3 = load ptr, ptr @RelationIdCache, align 8
  %4 = call ptr @hash_search(ptr noundef %3, ptr noundef nonnull %2, i32 noundef 0, ptr noundef null) #13
  %.not = icmp eq ptr %4, null
  br i1 %.not, label %.preheader, label %5

5:                                                ; preds = %1
  %6 = getelementptr inbounds nuw i8, ptr %4, i64 8
  %7 = load ptr, ptr %6, align 8
  %.not9 = icmp eq ptr %7, null
  br i1 %.not9, label %.preheader, label %11

.preheader:                                       ; preds = %1, %5
  %8 = load i32, ptr @in_progress_list_len, align 4
  %9 = icmp sgt i32 %8, 0
  br i1 %9, label %.lr.ph, label %RelationFlushRelation.exit

.lr.ph:                                           ; preds = %.preheader
  %10 = load ptr, ptr @in_progress_list, align 8
  %wide.trip.count = zext nneg i32 %8 to i64
  br label %76

11:                                               ; preds = %5
  %12 = load i64, ptr @relcacheInvalsReceived, align 8
  %13 = add i64 %12, 1
  store i64 %13, ptr @relcacheInvalsReceived, align 8
  %14 = getelementptr inbounds nuw i8, ptr %7, i64 40
  %15 = load i32, ptr %14, align 8
  %.not.i = icmp eq i32 %15, 0
  br i1 %.not.i, label %16, label %19

16:                                               ; preds = %11
  %17 = getelementptr inbounds nuw i8, ptr %7, i64 48
  %18 = load i32, ptr %17, align 8
  %.not14.i = icmp eq i32 %18, 0
  br i1 %.not14.i, label %51, label %19

19:                                               ; preds = %16, %11
  %20 = call zeroext i1 @IsTransactionState() #13
  br i1 %20, label %21, label %42

21:                                               ; preds = %19
  %22 = getelementptr inbounds nuw i8, ptr %7, i64 52
  %23 = load i32, ptr %22, align 4
  %24 = icmp eq i32 %23, 0
  br i1 %24, label %25, label %42

25:                                               ; preds = %21
  %26 = load ptr, ptr @CurrentResourceOwner, align 8
  call void @ResourceOwnerEnlarge(ptr noundef %26) #13
  %27 = getelementptr inbounds nuw i8, ptr %7, i64 24
  %28 = load i32, ptr %27, align 8
  %29 = add i32 %28, 1
  store i32 %29, ptr %27, align 8
  %30 = load i32, ptr @Mode, align 4
  %31 = icmp eq i32 %30, 0
  br i1 %31, label %RelationIncrementReferenceCount.exit.i, label %32

32:                                               ; preds = %25
  %33 = load ptr, ptr @CurrentResourceOwner, align 8
  %34 = ptrtoint ptr %7 to i64
  call void @ResourceOwnerRemember(ptr noundef %33, i64 noundef %34, ptr noundef nonnull @relref_resowner_desc) #13
  br label %RelationIncrementReferenceCount.exit.i

RelationIncrementReferenceCount.exit.i:           ; preds = %32, %25
  call fastcc void @RelationRebuildRelation(ptr noundef nonnull %7)
  %35 = load i32, ptr %27, align 8
  %36 = add i32 %35, -1
  store i32 %36, ptr %27, align 8
  %37 = load i32, ptr @Mode, align 4
  %38 = icmp eq i32 %37, 0
  br i1 %38, label %RelationFlushRelation.exit, label %39

39:                                               ; preds = %RelationIncrementReferenceCount.exit.i
  %40 = load ptr, ptr @CurrentResourceOwner, align 8
  %41 = ptrtoint ptr %7 to i64
  call void @ResourceOwnerForget(ptr noundef %40, i64 noundef %41, ptr noundef nonnull @relref_resowner_desc) #13
  br label %RelationFlushRelation.exit

42:                                               ; preds = %21, %19
  %43 = getelementptr inbounds nuw i8, ptr %7, i64 16
  %44 = load ptr, ptr %43, align 8
  %.not.i.i.i = icmp eq ptr %44, null
  br i1 %.not.i.i.i, label %RelationCloseSmgr.exit.i.i, label %45

45:                                               ; preds = %42
  call void @smgrunpin(ptr noundef nonnull %44) #13
  %46 = load ptr, ptr %43, align 8
  call void @smgrclose(ptr noundef %46) #13
  store ptr null, ptr %43, align 8
  br label %RelationCloseSmgr.exit.i.i

RelationCloseSmgr.exit.i.i:                       ; preds = %45, %42
  %47 = getelementptr inbounds nuw i8, ptr %7, i64 456
  %48 = load ptr, ptr %47, align 8
  %.not.i.i = icmp eq ptr %48, null
  br i1 %.not.i.i, label %RelationInvalidateRelation.exit.i, label %49

49:                                               ; preds = %RelationCloseSmgr.exit.i.i
  call void @pfree(ptr noundef nonnull %48) #13
  br label %RelationInvalidateRelation.exit.i

RelationInvalidateRelation.exit.i:                ; preds = %49, %RelationCloseSmgr.exit.i.i
  store ptr null, ptr %47, align 8
  %50 = getelementptr inbounds nuw i8, ptr %7, i64 34
  store i8 0, ptr %50, align 2
  br label %RelationFlushRelation.exit

51:                                               ; preds = %16
  %52 = getelementptr inbounds nuw i8, ptr %7, i64 24
  %53 = load i32, ptr %52, align 8
  %54 = icmp eq i32 %53, 0
  br i1 %54, label %55, label %56

55:                                               ; preds = %51
  call fastcc void @RelationClearRelation(ptr noundef nonnull %7)
  br label %RelationFlushRelation.exit

56:                                               ; preds = %51
  %57 = call zeroext i1 @IsTransactionState() #13
  br i1 %57, label %67, label %58

58:                                               ; preds = %56
  %59 = getelementptr inbounds nuw i8, ptr %7, i64 16
  %60 = load ptr, ptr %59, align 8
  %.not.i.i15.i = icmp eq ptr %60, null
  br i1 %.not.i.i15.i, label %RelationCloseSmgr.exit.i16.i, label %61

61:                                               ; preds = %58
  call void @smgrunpin(ptr noundef nonnull %60) #13
  %62 = load ptr, ptr %59, align 8
  call void @smgrclose(ptr noundef %62) #13
  store ptr null, ptr %59, align 8
  br label %RelationCloseSmgr.exit.i16.i

RelationCloseSmgr.exit.i16.i:                     ; preds = %61, %58
  %63 = getelementptr inbounds nuw i8, ptr %7, i64 456
  %64 = load ptr, ptr %63, align 8
  %.not.i17.i = icmp eq ptr %64, null
  br i1 %.not.i17.i, label %RelationInvalidateRelation.exit18.i, label %65

65:                                               ; preds = %RelationCloseSmgr.exit.i16.i
  call void @pfree(ptr noundef nonnull %64) #13
  br label %RelationInvalidateRelation.exit18.i

RelationInvalidateRelation.exit18.i:              ; preds = %65, %RelationCloseSmgr.exit.i16.i
  store ptr null, ptr %63, align 8
  %66 = getelementptr inbounds nuw i8, ptr %7, i64 34
  store i8 0, ptr %66, align 2
  br label %RelationFlushRelation.exit

67:                                               ; preds = %56
  %68 = getelementptr inbounds nuw i8, ptr %7, i64 33
  %69 = load i8, ptr %68, align 1, !range !6, !noundef !7
  %70 = trunc nuw i8 %69 to i1
  br i1 %70, label %71, label %75

71:                                               ; preds = %67
  %72 = load i32, ptr %52, align 8
  %73 = icmp eq i32 %72, 1
  br i1 %73, label %74, label %75

74:                                               ; preds = %71
  call fastcc void @RelationInvalidateRelation(ptr noundef nonnull %7)
  br label %RelationFlushRelation.exit

75:                                               ; preds = %71, %67
  call fastcc void @RelationRebuildRelation(ptr noundef nonnull %7)
  br label %RelationFlushRelation.exit

76:                                               ; preds = %.lr.ph, %83
  %indvars.iv = phi i64 [ 0, %.lr.ph ], [ %indvars.iv.next, %83 ]
  %77 = getelementptr inbounds nuw %struct.inprogressent, ptr %10, i64 %indvars.iv
  %78 = load i32, ptr %77, align 4
  %79 = load i32, ptr %2, align 4
  %80 = icmp eq i32 %78, %79
  br i1 %80, label %81, label %83

81:                                               ; preds = %76
  %82 = getelementptr inbounds nuw i8, ptr %77, i64 4
  store i8 1, ptr %82, align 4
  br label %83

83:                                               ; preds = %76, %81
  %indvars.iv.next = add nuw nsw i64 %indvars.iv, 1
  %exitcond.not = icmp eq i64 %indvars.iv.next, %wide.trip.count
  br i1 %exitcond.not, label %RelationFlushRelation.exit, label %76, !llvm.loop !18

RelationFlushRelation.exit:                       ; preds = %83, %.preheader, %75, %74, %RelationInvalidateRelation.exit18.i, %55, %RelationInvalidateRelation.exit.i, %39, %RelationIncrementReferenceCount.exit.i
  ret void
}